; Function Attrs: mustprogress uwtable
define dso_local void @_ZN12cmSearchPath18AddCMakePrefixPathERKNSt7__cxx1112basic_stringIcSt11char_traitsIcESaIcEEE(ptr noundef nonnull align 8 dereferenceable(32) %0, ptr noundef nonnull align 8 dereferenceable(32) %1) local_unnamed_addr #5 align 2 personality ptr @__gxx_personality_v0 {
  %3 = alloca %class.cmList, align 8
  %4 = alloca [1 x %"class.std::__cxx11::basic_string"], align 8
  %5 = load ptr, ptr %0, align 8
  %6 = getelementptr inbounds nuw i8, ptr %5, i64 368
  %7 = load ptr, ptr %6, align 8
  %8 = tail call ptr @_ZNK10cmMakefile13GetDefinitionERKNSt7__cxx1112basic_stringIcSt11char_traitsIcESaIcEEE(ptr noundef nonnull align 8 dereferenceable(3520) %7, ptr noundef nonnull align 8 dereferenceable(32) %1)
  %.not = icmp eq ptr %8, null
  br i1 %.not, label %_ZN6cmListD2Ev.exit, label %9

9:                                                ; preds = %2
  call void @_ZNSt7__cxx1112basic_stringIcSt11char_traitsIcESaIcEEC1ERKS4_(ptr noundef nonnull align 8 dereferenceable(32) %4, ptr noundef nonnull align 8 dereferenceable(32) %8)
  call void @llvm.memset.p0.i64(ptr noundef nonnull align 8 dereferenceable(24) %3, i8 0, i64 24, i1 false)
  invoke void @_ZN6cmList6assignESt16initializer_listINSt7__cxx1112basic_stringIcSt11char_traitsIcESaIcEEEE(ptr noundef nonnull align 8 dereferenceable(24) %3, ptr nonnull %4, i64 1)
          to label %_ZN6cmListC2ESt16initializer_listINSt7__cxx1112basic_stringIcSt11char_traitsIcESaIcEEEE.exit unwind label %.body

.body:                                            ; preds = %9
  %10 = landingpad { ptr, i32 }
          cleanup
  call void @_ZNSt6vectorINSt7__cxx1112basic_stringIcSt11char_traitsIcESaIcEEESaIS5_EED2Ev(ptr noundef nonnull align 8 dereferenceable(24) %3) #18
  call void @_ZNSt7__cxx1112basic_stringIcSt11char_traitsIcESaIcEED1Ev(ptr noundef nonnull align 8 dereferenceable(32) %4) #18
  br label %.loopexit

_ZN6cmListC2ESt16initializer_listINSt7__cxx1112basic_stringIcSt11char_traitsIcESaIcEEEE.exit: ; preds = %9
  call void @_ZNSt7__cxx1112basic_stringIcSt11char_traitsIcESaIcEED1Ev(ptr noundef nonnull align 8 dereferenceable(32) %4) #18
  %11 = load ptr, ptr %0, align 8
  %12 = getelementptr inbounds nuw i8, ptr %11, i64 368
  %13 = load ptr, ptr %12, align 8
  %14 = invoke noundef nonnull align 8 dereferenceable(32) ptr @_ZNK10cmMakefile25GetCurrentSourceDirectoryB5cxx11Ev(ptr noundef nonnull align 8 dereferenceable(3520) %13)
          to label %15 unwind label %24

15:                                               ; preds = %_ZN6cmListC2ESt16initializer_listINSt7__cxx1112basic_stringIcSt11char_traitsIcESaIcEEEE.exit
  %16 = call noundef ptr @_ZNKSt7__cxx1112basic_stringIcSt11char_traitsIcESaIcEE5c_strEv(ptr noundef nonnull align 8 dereferenceable(32) %14) #18
  invoke void @_ZN12cmSearchPath14AddPrefixPathsERKSt6vectorINSt7__cxx1112basic_stringIcSt11char_traitsIcESaIcEEESaIS6_EEPKc(ptr noundef nonnull align 8 dereferenceable(32) %0, ptr noundef nonnull align 8 dereferenceable(24) %3, ptr noundef %16)
          to label %17 unwind label %24

17:                                               ; preds = %15
  %18 = load ptr, ptr %3, align 8
  %19 = getelementptr inbounds nuw i8, ptr %3, i64 8
  %20 = load ptr, ptr %19, align 8
  %.not4.i.i.i.i.i = icmp eq ptr %18, %20
  br i1 %.not4.i.i.i.i.i, label %_ZSt8_DestroyIPNSt7__cxx1112basic_stringIcSt11char_traitsIcESaIcEEES5_EvT_S7_RSaIT0_E.exit.i.i, label %.lr.ph.i.i.i.i.i

.lr.ph.i.i.i.i.i:                                 ; preds = %17, %.lr.ph.i.i.i.i.i
  %.05.i.i.i.i.i = phi ptr [ %21, %.lr.ph.i.i.i.i.i ], [ %18, %17 ]
  call void @_ZNSt7__cxx1112basic_stringIcSt11char_traitsIcESaIcEED1Ev(ptr noundef nonnull align 8 dereferenceable(32) %.05.i.i.i.i.i) #18
  %21 = getelementptr inbounds nuw i8, ptr %.05.i.i.i.i.i, i64 32
  %.not.i.i.i.i.i = icmp eq ptr %21, %20
  br i1 %.not.i.i.i.i.i, label %_ZSt8_DestroyIPNSt7__cxx1112basic_stringIcSt11char_traitsIcESaIcEEES5_EvT_S7_RSaIT0_E.exitthread-pre-split.i.i, label %.lr.ph.i.i.i.i.i, !llvm.loop !7

_ZSt8_DestroyIPNSt7__cxx1112basic_stringIcSt11char_traitsIcESaIcEEES5_EvT_S7_RSaIT0_E.exitthread-pre-split.i.i: ; preds = %.lr.ph.i.i.i.i.i
  %.pr.i.i = load ptr, ptr %3, align 8
  br label %_ZSt8_DestroyIPNSt7__cxx1112basic_stringIcSt11char_traitsIcESaIcEEES5_EvT_S7_RSaIT0_E.exit.i.i

_ZSt8_DestroyIPNSt7__cxx1112basic_stringIcSt11char_traitsIcESaIcEEES5_EvT_S7_RSaIT0_E.exit.i.i: ; preds = %_ZSt8_DestroyIPNSt7__cxx1112basic_stringIcSt11char_traitsIcESaIcEEES5_EvT_S7_RSaIT0_E.exitthread-pre-split.i.i, %17
  %22 = phi ptr [ %.pr.i.i, %_ZSt8_DestroyIPNSt7__cxx1112basic_stringIcSt11char_traitsIcESaIcEEES5_EvT_S7_RSaIT0_E.exitthread-pre-split.i.i ], [ %18, %17 ]
  %.not.i.i.i.i = icmp eq ptr %22, null
  br i1 %.not.i.i.i.i, label %_ZN6cmListD2Ev.exit, label %23

23:                                               ; preds = %_ZSt8_DestroyIPNSt7__cxx1112basic_stringIcSt11char_traitsIcESaIcEEES5_EvT_S7_RSaIT0_E.exit.i.i
  call void @_ZdlPv(ptr noundef nonnull %22) #19
  br label %_ZN6cmListD2Ev.exit

24:                                               ; preds = %15, %_ZN6cmListC2ESt16initializer_listINSt7__cxx1112basic_stringIcSt11char_traitsIcESaIcEEEE.exit
  %25 = landingpad { ptr, i32 }
          cleanup
  call void @_ZN6cmListD2Ev(ptr noundef nonnull align 8 dereferenceable(24) %3) #18
  br label %.loopexit

_ZN6cmListD2Ev.exit:                              ; preds = %23, %_ZSt8_DestroyIPNSt7__cxx1112basic_stringIcSt11char_traitsIcESaIcEEES5_EvT_S7_RSaIT0_E.exit.i.i, %2
  ret void

.loopexit:                                        ; preds = %.body, %24
  %.pn = phi { ptr, i32 } [ %25, %24 ], [ %10, %.body ]
  resume { ptr, i32 } %.pn
}